; Function Attrs: mustprogress uwtable
define hidden noundef ptr @_ZNK3nla9intervals22get_inf_interval_childERKNS_7nex_sumE(ptr noundef nonnull align 8 dereferenceable(1432) %this, ptr nocapture noundef nonnull readonly align 8 dereferenceable(16) %e) local_unnamed_addr #3 align 2 {
entry:
  %m_children.i = getelementptr inbounds i8, ptr %e, i64 8
  %0 = load ptr, ptr %m_children.i, align 8
  %cmp.i.i = icmp eq ptr %0, null
  br i1 %cmp.i.i, label %return, label %_ZNK3nla7nex_sum3endEv.exit

_ZNK3nla7nex_sum3endEv.exit:                      ; preds = %entry
  %arrayidx.i.i = getelementptr inbounds i8, ptr %0, i64 -4
  %1 = load i32, ptr %arrayidx.i.i, align 4
  %2 = zext i32 %1 to i64
  %add.ptr.i = getelementptr inbounds ptr, ptr %0, i64 %2
  %cmp.not6 = icmp eq i32 %1, 0
  br i1 %cmp.not6, label %return, label %for.body

for.cond:                                         ; preds = %for.body
  %incdec.ptr = getelementptr inbounds i8, ptr %__begin1.07, i64 8
  %cmp.not = icmp eq ptr %incdec.ptr, %add.ptr.i
  br i1 %cmp.not, label %return, label %for.body

for.body:                                         ; preds = %_ZNK3nla7nex_sum3endEv.exit, %for.cond
  %__begin1.07 = phi ptr [ %incdec.ptr, %for.cond ], [ %0, %_ZNK3nla7nex_sum3endEv.exit ]
  %3 = load ptr, ptr %__begin1.07, align 8
  %call3 = tail call noundef zeroext i1 @_ZNK3nla9intervals16has_inf_intervalERKNS_3nexE(ptr noundef nonnull align 8 dereferenceable(1432) %this, ptr noundef nonnull align 8 dereferenceable(8) %3)
  br i1 %call3, label %return, label %for.cond

return:                                           ; preds = %for.body, %for.cond, %entry, %_ZNK3nla7nex_sum3endEv.exit
  %retval.0 = phi ptr [ null, %_ZNK3nla7nex_sum3endEv.exit ], [ null, %entry ], [ null, %for.cond ], [ %3, %for.body ]
  ret ptr %retval.0
}